target datalayout = "e-m:e-p270:32:32-p271:32:32-p272:64:64-i64:64-i128:128-f80:128-n8:16:32:64-S128"
target triple = "x86_64-pc-linux-gnu"

%struct.LogicalRepWorker = type { i32, i64, i8, i16, ptr, i32, i32, i32, i32, i8, i64, i8, ptr, i32, i8, i64, i64, i64, i64, i64 }
%struct.Subscription = type { i32, i32, i64, ptr, i32, i8, i8, i8, i8, i8, i8, i8, i8, i8, ptr, ptr, ptr, ptr, ptr }
%struct.LogicalRepRelMapEntry = type { %struct.LogicalRepRelation, i8, i32, ptr, ptr, i8, i32, i8, i64 }
%struct.LogicalRepRelation = type { i32, ptr, ptr, i32, ptr, ptr, i8, i8, ptr }

@MySubscription = dso_local global ptr null, align 8
@MyLogicalRepWorker = external global ptr, align 8
@.str.3 = private unnamed_addr constant [9 x i8] c"worker.c\00", align 1
@remote_final_lsn = internal global i64 0, align 8
@.str.47 = private unnamed_addr constant [74 x i8] c"logical replication parallel apply worker for subscription \22%s\22 will stop\00", align 1
@.str.48 = private unnamed_addr constant [118 x i8] c"Cannot handle streamed replication transactions using parallel apply workers until all tables have been synchronized.\00", align 1
@__func__.should_apply_changes_for_rel = private unnamed_addr constant [29 x i8] c"should_apply_changes_for_rel\00", align 1
@.str.49 = private unnamed_addr constant [20 x i8] c"Unknown worker type\00", align 1

; Function Attrs: nounwind uwtable
define internal zeroext i1 @should_apply_changes_for_rel(ptr noundef %0) #0 {
  %2 = alloca i1, align 1
  %3 = alloca ptr, align 8
  store ptr %0, ptr %3, align 8
  %4 = load ptr, ptr @MyLogicalRepWorker, align 8
  %5 = getelementptr inbounds nuw %struct.LogicalRepWorker, ptr %4, i32 0, i32 0
  %6 = load i32, ptr %5, align 8
  switch i32 %6, label %80 [
    i32 1, label %7
    i32 3, label %15
    i32 2, label %48
    i32 0, label %70
  ]

7:                                                ; preds = %1
  %8 = load ptr, ptr @MyLogicalRepWorker, align 8
  %9 = getelementptr inbounds nuw %struct.LogicalRepWorker, ptr %8, i32 0, i32 8
  %10 = load i32, ptr %9, align 4
  %11 = load ptr, ptr %3, align 8
  %12 = getelementptr inbounds nuw %struct.LogicalRepRelMapEntry, ptr %11, i32 0, i32 2
  %13 = load i32, ptr %12, align 4
  %14 = icmp eq i32 %10, %13
  store i1 %14, ptr %2, align 1
  br label %81

15:                                               ; preds = %1
  %16 = load ptr, ptr %3, align 8
  %17 = getelementptr inbounds nuw %struct.LogicalRepRelMapEntry, ptr %16, i32 0, i32 7
  %18 = load i8, ptr %17, align 8
  %19 = sext i8 %18 to i32
  %20 = icmp ne i32 %19, 114
  br i1 %20, label %21, label %42

21:                                               ; preds = %15
  %22 = load ptr, ptr %3, align 8
  %23 = getelementptr inbounds nuw %struct.LogicalRepRelMapEntry, ptr %22, i32 0, i32 7
  %24 = load i8, ptr %23, align 8
  %25 = sext i8 %24 to i32
  %26 = icmp ne i32 %25, 0
  br i1 %26, label %27, label %42

27:                                               ; preds = %21
  br label %28

28:                                               ; preds = %27
  br i1 true, label %29, label %31

29:                                               ; preds = %28
  %30 = call zeroext i1 @errstart_cold(i32 noundef 21, ptr noundef null) #13
  br i1 %30, label %33, label %40

31:                                               ; preds = %28
  %32 = call zeroext i1 @errstart(i32 noundef 21, ptr noundef null)
  br i1 %32, label %33, label %40

33:                                               ; preds = %31, %29
  %34 = call i32 @errcode(i32 noundef 325)
  %35 = load ptr, ptr @MySubscription, align 8
  %36 = getelementptr inbounds nuw %struct.Subscription, ptr %35, i32 0, i32 3
  %37 = load ptr, ptr %36, align 8
  %38 = call i32 (ptr, ...) @errmsg(ptr noundef @.str.47, ptr noundef %37)
  %39 = call i32 (ptr, ...) @errdetail(ptr noundef @.str.48)
  call void @errfinish(ptr noundef @.str.3, i32 noundef 481, ptr noundef @__func__.should_apply_changes_for_rel)
  br label %40

40:                                               ; preds = %33, %31, %29
  unreachable

41:                                               ; No predecessors!
  br label %42

42:                                               ; preds = %41, %21, %15
  %43 = load ptr, ptr %3, align 8
  %44 = getelementptr inbounds nuw %struct.LogicalRepRelMapEntry, ptr %43, i32 0, i32 7
  %45 = load i8, ptr %44, align 8
  %46 = sext i8 %45 to i32
  %47 = icmp eq i32 %46, 114
  store i1 %47, ptr %2, align 1
  br label %81

48:                                               ; preds = %1
  %49 = load ptr, ptr %3, align 8
  %50 = getelementptr inbounds nuw %struct.LogicalRepRelMapEntry, ptr %49, i32 0, i32 7
  %51 = load i8, ptr %50, align 8
  %52 = sext i8 %51 to i32
  %53 = icmp eq i32 %52, 114
  br i1 %53, label %68, label %54

54:                                               ; preds = %48
  %55 = load ptr, ptr %3, align 8
  %56 = getelementptr inbounds nuw %struct.LogicalRepRelMapEntry, ptr %55, i32 0, i32 7
  %57 = load i8, ptr %56, align 8
  %58 = sext i8 %57 to i32
  %59 = icmp eq i32 %58, 115
  br i1 %59, label %60, label %66

60:                                               ; preds = %54
  %61 = load ptr, ptr %3, align 8
  %62 = getelementptr inbounds nuw %struct.LogicalRepRelMapEntry, ptr %61, i32 0, i32 8
  %63 = load i64, ptr %62, align 8
  %64 = load i64, ptr @remote_final_lsn, align 8
  %65 = icmp ule i64 %63, %64
  br label %66

66:                                               ; preds = %60, %54
  %67 = phi i1 [ false, %54 ], [ %65, %60 ]
  br label %68

68:                                               ; preds = %66, %48
  %69 = phi i1 [ true, %48 ], [ %67, %66 ]
  store i1 %69, ptr %2, align 1
  br label %81

70:                                               ; preds = %1
  br label %71

71:                                               ; preds = %70
  br i1 true, label %72, label %74

72:                                               ; preds = %71
  %73 = call zeroext i1 @errstart_cold(i32 noundef 21, ptr noundef null) #13
  br i1 %73, label %76, label %78

74:                                               ; preds = %71
  %75 = call zeroext i1 @errstart(i32 noundef 21, ptr noundef null)
  br i1 %75, label %76, label %78

76:                                               ; preds = %74, %72
  %77 = call i32 (ptr, ...) @errmsg_internal(ptr noundef @.str.49)
  call void @errfinish(ptr noundef @.str.3, i32 noundef 492, ptr noundef @__func__.should_apply_changes_for_rel)
  br label %78

78:                                               ; preds = %76, %74, %72
  unreachable

79:                                               ; No predecessors!
  br label %80

80:                                               ; preds = %79, %1
  store i1 false, ptr %2, align 1
  br label %81

81:                                               ; preds = %80, %68, %42, %7
  %82 = load i1, ptr %2, align 1
  ret i1 %82
}