; Function Attrs: nounwind uwtable
define internal fastcc zeroext i1 @should_apply_changes_for_rel(ptr noundef readonly captures(none) %0) unnamed_addr #0 {
  %2 = load ptr, ptr @MyLogicalRepWorker, align 8
  %3 = load i32, ptr %2, align 8
  switch i32 %3, label %34 [
    i32 1, label %4
    i32 3, label %10
    i32 2, label %23
    i32 0, label %31
  ]

4:                                                ; preds = %1
  %5 = getelementptr inbounds nuw i8, ptr %2, i64 44
  %6 = load i32, ptr %5, align 4
  %7 = getelementptr inbounds nuw i8, ptr %0, i64 68
  %8 = load i32, ptr %7, align 4
  %9 = icmp eq i32 %6, %8
  br label %34

10:                                               ; preds = %1
  %11 = getelementptr inbounds nuw i8, ptr %0, i64 96
  %12 = load i8, ptr %11, align 8
  switch i8 %12, label %13 [
    i8 114, label %21
    i8 0, label %21
  ]

13:                                               ; preds = %10
  %14 = tail call zeroext i1 @errstart_cold(i32 noundef 21, ptr noundef null) #18
  tail call void @llvm.assume(i1 %14)
  %15 = tail call i32 @errcode(i32 noundef 325) #17
  %16 = load ptr, ptr @MySubscription, align 8
  %17 = getelementptr inbounds nuw i8, ptr %16, i64 16
  %18 = load ptr, ptr %17, align 8
  %19 = tail call i32 (ptr, ...) @errmsg(ptr noundef nonnull @.str.47, ptr noundef %18) #17
  %20 = tail call i32 (ptr, ...) @errdetail(ptr noundef nonnull @.str.48) #17
  tail call void @errfinish(ptr noundef nonnull @.str.3, i32 noundef 481, ptr noundef nonnull @__func__.should_apply_changes_for_rel) #17
  unreachable

21:                                               ; preds = %10, %10
  %22 = icmp eq i8 %12, 114
  br label %34

23:                                               ; preds = %1
  %24 = getelementptr inbounds nuw i8, ptr %0, i64 96
  %25 = load i8, ptr %24, align 8
  switch i8 %25, label %.fold.split [
    i8 114, label %34
    i8 115, label %26
  ]

26:                                               ; preds = %23
  %27 = getelementptr inbounds nuw i8, ptr %0, i64 104
  %28 = load i64, ptr %27, align 8
  %29 = load i64, ptr @remote_final_lsn, align 8
  %30 = icmp ule i64 %28, %29
  br label %34

.fold.split:                                      ; preds = %23
  br label %34

31:                                               ; preds = %1
  %32 = tail call zeroext i1 @errstart_cold(i32 noundef 21, ptr noundef null) #18
  tail call void @llvm.assume(i1 %32)
  %33 = tail call i32 (ptr, ...) @errmsg_internal(ptr noundef nonnull @.str.49) #17
  tail call void @errfinish(ptr noundef nonnull @.str.3, i32 noundef 492, ptr noundef nonnull @__func__.should_apply_changes_for_rel) #17
  unreachable

34:                                               ; preds = %1, %26, %.fold.split, %23, %21, %4
  %.0 = phi i1 [ %22, %21 ], [ %9, %4 ], [ true, %23 ], [ %30, %26 ], [ false, %.fold.split ], [ false, %1 ]
  ret i1 %.0
}